; Function Attrs: mustprogress uwtable
define dso_local void @_ZN25StateTestWithBuiltinRulesC2Ev(ptr noundef nonnull align 8 dereferenceable(280) %0) unnamed_addr #3 align 2 personality ptr @__gxx_personality_v0 {
  tail call void @_ZN7testing4TestC2Ev(ptr noundef nonnull align 8 dereferenceable(16) %0)
  store ptr getelementptr inbounds ({ [8 x ptr] }, ptr @_ZTV25StateTestWithBuiltinRules, i64 0, i32 0, i64 2), ptr %0, align 8
  %2 = getelementptr inbounds i8, ptr %0, i64 16
  invoke void @_ZN5StateC1Ev(ptr noundef nonnull align 8 dereferenceable(264) %2)
          to label %3 unwind label %4

3:                                                ; preds = %1
  invoke void @_Z11AssertParseP5StatePKc21ManifestParserOptions(ptr noundef nonnull %2, ptr noundef nonnull @.str, i32 0)
          to label %_ZN25StateTestWithBuiltinRules10AddCatRuleEP5State.exit unwind label %6

_ZN25StateTestWithBuiltinRules10AddCatRuleEP5State.exit: ; preds = %3
  ret void

4:                                                ; preds = %1
  %5 = landingpad { ptr, i32 }
          cleanup
  br label %8

6:                                                ; preds = %3
  %7 = landingpad { ptr, i32 }
          cleanup
  tail call void @_ZN5StateD2Ev(ptr noundef nonnull align 8 dereferenceable(264) %2) #23
  br label %8

8:                                                ; preds = %6, %4
  %.pn = phi { ptr, i32 } [ %7, %6 ], [ %5, %4 ]
  tail call void @_ZN7testing4TestD2Ev(ptr noundef nonnull align 8 dereferenceable(16) %0) #23
  resume { ptr, i32 } %.pn
}